; Function Attrs: mustprogress uwtable
define internal noundef zeroext i1 @_ZNSt17_Function_handlerIFbllbEZN5arrow7compute8internal12_GLOBAL__N_19SelectionINS4_21ListViewSelectionImplINS1_12ListViewTypeEEES7_E11VisitFilterIZNS8_14GenerateOutputINS9_13FilterAdapterEEENS1_6StatusEvEUllE_ZNSB_ISC_EESD_vEUlvE_EESD_OT_OT0_EUlllbE_E10_M_managerERSt9_Any_dataRKSM_St18_Manager_operation(ptr noundef nonnull align 8 captures(none) dereferenceable(16) %0, ptr noundef nonnull readonly align 8 captures(none) dereferenceable(16) %1, i32 noundef %2) #1 align 2 {
  switch i32 %2, label %_ZNSt14_Function_base13_Base_managerIZN5arrow7compute8internal12_GLOBAL__N_19SelectionINS4_21ListViewSelectionImplINS1_12ListViewTypeEEES7_E11VisitFilterIZNS8_14GenerateOutputINS9_13FilterAdapterEEENS1_6StatusEvEUllE_ZNSB_ISC_EESD_vEUlvE_EESD_OT_OT0_EUlllbE_E10_M_managerERSt9_Any_dataRKSM_St18_Manager_operation.exit [
    i32 0, label %4
    i32 1, label %5
    i32 3, label %8
    i32 2, label %6
  ]

4:                                                ; preds = %3
  store ptr @_ZTIZN5arrow7compute8internal12_GLOBAL__N_19SelectionINS2_21ListViewSelectionImplINS_12ListViewTypeEEES5_E11VisitFilterIZNS6_14GenerateOutputINS7_13FilterAdapterEEENS_6StatusEvEUllE_ZNS9_ISA_EESB_vEUlvE_EESB_OT_OT0_EUlllbE_, ptr %0, align 8, !tbaa !3746
  br label %_ZNSt14_Function_base13_Base_managerIZN5arrow7compute8internal12_GLOBAL__N_19SelectionINS4_21ListViewSelectionImplINS1_12ListViewTypeEEES7_E11VisitFilterIZNS8_14GenerateOutputINS9_13FilterAdapterEEENS1_6StatusEvEUllE_ZNSB_ISC_EESD_vEUlvE_EESD_OT_OT0_EUlllbE_E10_M_managerERSt9_Any_dataRKSM_St18_Manager_operation.exit

5:                                                ; preds = %3
  %.val = load ptr, ptr %1, align 8, !tbaa !85
  store ptr %.val, ptr %0, align 8, !tbaa !85
  br label %_ZNSt14_Function_base13_Base_managerIZN5arrow7compute8internal12_GLOBAL__N_19SelectionINS4_21ListViewSelectionImplINS1_12ListViewTypeEEES7_E11VisitFilterIZNS8_14GenerateOutputINS9_13FilterAdapterEEENS1_6StatusEvEUllE_ZNSB_ISC_EESD_vEUlvE_EESD_OT_OT0_EUlllbE_E10_M_managerERSt9_Any_dataRKSM_St18_Manager_operation.exit

6:                                                ; preds = %3
  %.val6 = load ptr, ptr %1, align 8
  %7 = tail call noalias noundef nonnull dereferenceable(24) ptr @_Znwm(i64 noundef 24) #26
  tail call void @llvm.memcpy.p0.p0.i64(ptr noundef nonnull align 16 dereferenceable(24) %7, ptr noundef nonnull readonly align 8 dereferenceable(24) %.val6, i64 24, i1 false), !tbaa.struct !3748
  store ptr %7, ptr %0, align 8, !tbaa !85
  br label %_ZNSt14_Function_base13_Base_managerIZN5arrow7compute8internal12_GLOBAL__N_19SelectionINS4_21ListViewSelectionImplINS1_12ListViewTypeEEES7_E11VisitFilterIZNS8_14GenerateOutputINS9_13FilterAdapterEEENS1_6StatusEvEUllE_ZNSB_ISC_EESD_vEUlvE_EESD_OT_OT0_EUlllbE_E10_M_managerERSt9_Any_dataRKSM_St18_Manager_operation.exit

8:                                                ; preds = %3
  %.val7.i = load ptr, ptr %0, align 8, !tbaa !85
  %9 = icmp eq ptr %.val7.i, null
  br i1 %9, label %_ZNSt14_Function_base13_Base_managerIZN5arrow7compute8internal12_GLOBAL__N_19SelectionINS4_21ListViewSelectionImplINS1_12ListViewTypeEEES7_E11VisitFilterIZNS8_14GenerateOutputINS9_13FilterAdapterEEENS1_6StatusEvEUllE_ZNSB_ISC_EESD_vEUlvE_EESD_OT_OT0_EUlllbE_E10_M_managerERSt9_Any_dataRKSM_St18_Manager_operation.exit, label %10

10:                                               ; preds = %8
  tail call void @_ZdlPvm(ptr noundef nonnull %.val7.i, i64 noundef 24) #27
  br label %_ZNSt14_Function_base13_Base_managerIZN5arrow7compute8internal12_GLOBAL__N_19SelectionINS4_21ListViewSelectionImplINS1_12ListViewTypeEEES7_E11VisitFilterIZNS8_14GenerateOutputINS9_13FilterAdapterEEENS1_6StatusEvEUllE_ZNSB_ISC_EESD_vEUlvE_EESD_OT_OT0_EUlllbE_E10_M_managerERSt9_Any_dataRKSM_St18_Manager_operation.exit

_ZNSt14_Function_base13_Base_managerIZN5arrow7compute8internal12_GLOBAL__N_19SelectionINS4_21ListViewSelectionImplINS1_12ListViewTypeEEES7_E11VisitFilterIZNS8_14GenerateOutputINS9_13FilterAdapterEEENS1_6StatusEvEUllE_ZNSB_ISC_EESD_vEUlvE_EESD_OT_OT0_EUlllbE_E10_M_managerERSt9_Any_dataRKSM_St18_Manager_operation.exit: ; preds = %3, %10, %8, %6, %5, %4
  ret i1 false
}